(dp1
S'indexer:defaultlinks'
p2
(lp3
F1304529535.878907
aI6
aI41194
asS'indexer:interwikilinks'
p4
(lp5
F1304529535.8783569
aI6
aI40952
asS'started'
p6
(lp7
F1304529529.7481041
aI12
aI40015
asS'indexer:pageinfo'
p8
(lp9
F1304529535.8792281
aI3492
aI41200
asS'indexer:wikilinks'
p10
(lp11
F1304529535.8779261
aI449
aI40503
asS'indexer:wantedlinks'
p12
(lp13
F1304529535.879374
aI105
aI44692
asS'indexer:tags'
p14
(lp15
F1304529535.8797309
aI132
aI45155
asS'indexer:outboundlinks'
p16
(lp17
F1304529535.87867
aI236
aI40958
asS'indexer:backlinks'
p18
(lp19
F1304529535.8778219
aI476
aI40027
asS'indexer:indexed'
p20
(lp21
F1304529535.8795221
aI358
aI44797
as.