(dp1
S'indexer:defaultlinks'
p2
(lp3
F1308350934.5902719
aI6
aI71280
asS'indexer:interwikilinks'
p4
(lp5
F1308350934.589973
aI6
aI70945
asS'started'
p6
(lp7
F1308350929.258172
aI12
aI69763
asS'indexer:pageinfo'
p8
(lp9
F1308350934.590934
aI4371
aI71286
asS'indexer:wikilinks'
p10
(lp11
F1308350934.5898261
aI595
aI70350
asS'indexer:wantedlinks'
p12
(lp13
F1308350934.5933671
aI246
aI75657
asS'indexer:tags'
p14
(lp15
F1308350934.5937321
aI185
aI76356
asS'indexer:outboundlinks'
p16
(lp17
F1308350934.5901301
aI329
aI70951
asS'indexer:backlinks'
p18
(lp19
F1308350934.589627
aI575
aI69775
asS'indexer:indexed'
p20
(lp21
F1308350934.5935731
aI453
aI75903
as.